; ModuleID = 'bench/curl/original/curl_gethostname.ll'
source_filename = "bench/curl/original/curl_gethostname.ll"
target datalayout = "e-m:e-p270:32:32-p271:32:32-p272:64:64-i64:64-i128:128-f80:128-n8:16:32:64-S128"
target triple = "x86_64-pc-linux-gnu"

; Function Attrs: nounwind uwtable
define hidden i32 @Curl_gethostname(ptr noundef initializes((0, 1)) %0, i64 noundef %1) local_unnamed_addr #0 {
  store i8 0, ptr %0, align 1, !tbaa !3
  %3 = tail call i32 @gethostname(ptr noundef nonnull %0, i64 noundef %1) #3
  %4 = getelementptr i8, ptr %0, i64 %1
  %5 = getelementptr i8, ptr %4, i64 -1
  store i8 0, ptr %5, align 1, !tbaa !3
  %.not = icmp eq i32 %3, 0
  br i1 %.not, label %6, label %9

6:                                                ; preds = %2
  %7 = tail call ptr @strchr(ptr noundef nonnull dereferenceable(1) %0, i32 noundef 46) #4
  %.not12 = icmp eq ptr %7, null
  br i1 %.not12, label %9, label %8

8:                                                ; preds = %6
  store i8 0, ptr %7, align 1, !tbaa !3
  br label %9

9:                                                ; preds = %6, %8, %2
  ret i32 %3
}

; Function Attrs: nounwind
declare i32 @gethostname(ptr noundef, i64 noundef) local_unnamed_addr #1

; Function Attrs: mustprogress nofree nounwind willreturn memory(argmem: read)
declare ptr @strchr(ptr noundef, i32 noundef) local_unnamed_addr #2


!llvm.module.flags = !{!0, !1, !2}

!0 = !{i32 1, !"wchar_size", i32 4}
!1 = !{i32 8, !"PIC Level", i32 2}
!2 = !{i32 7, !"uwtable", i32 2}
!3 = !{!4, !4, i64 0}
!4 = !{!"omnipotent char", !5, i64 0}
!5 = !{!"Simple C/C++ TBAA"}
